target datalayout = "e-m:e-p270:32:32-p271:32:32-p272:64:64-i64:64-i128:128-f80:128-n8:16:32:64-S128"
target triple = "x86_64-pc-linux-gnu"

%"struct.boost::fibers::context_initializer" = type { i8 }
%"class.boost::fibers::context" = type { ptr, %"struct.std::atomic", %"class.boost::intrusive::slist_member_hook", %"class.boost::fibers::detail::spinlock_ttas", i8, %"class.boost::fibers::wait_queue", %"struct.std::atomic", ptr, %"class.std::map", %"class.boost::intrusive::set_member_hook", %"class.boost::fibers::waker", %"class.boost::intrusive::list_member_hook", %"class.boost::intrusive::slist_member_hook.7", %"class.boost::intrusive::list_member_hook.8", ptr, %"class.boost::context::fiber", %"class.std::chrono::time_point", i32, i32 }
%"class.boost::intrusive::slist_member_hook" = type { %"class.boost::intrusive::generic_hook" }
%"class.boost::intrusive::generic_hook" = type { %"struct.boost::intrusive::slist_node" }
%"struct.boost::intrusive::slist_node" = type { ptr }
%"class.boost::fibers::detail::spinlock_ttas" = type { %"struct.std::atomic.2" }
%"struct.std::atomic.2" = type { i32 }
%"class.boost::fibers::wait_queue" = type { %"class.boost::intrusive::slist" }
%"class.boost::intrusive::slist" = type { %"class.boost::intrusive::slist_impl" }
%"class.boost::intrusive::slist_impl" = type { %"struct.boost::intrusive::slist_impl<boost::intrusive::mhtraits<boost::fibers::waker_with_hook, boost::intrusive::slist_member_hook<>, &boost::fibers::waker_with_hook::waker_queue_hook_>, unsigned long, 4, void>::data_t" }
%"struct.boost::intrusive::slist_impl<boost::intrusive::mhtraits<boost::fibers::waker_with_hook, boost::intrusive::slist_member_hook<>, &boost::fibers::waker_with_hook::waker_queue_hook_>, unsigned long, 4, void>::data_t" = type { %"struct.boost::intrusive::slist_impl<boost::intrusive::mhtraits<boost::fibers::waker_with_hook, boost::intrusive::slist_member_hook<>, &boost::fibers::waker_with_hook::waker_queue_hook_>, unsigned long, 4, void>::root_plus_size" }
%"struct.boost::intrusive::slist_impl<boost::intrusive::mhtraits<boost::fibers::waker_with_hook, boost::intrusive::slist_member_hook<>, &boost::fibers::waker_with_hook::waker_queue_hook_>, unsigned long, 4, void>::root_plus_size" = type { %"struct.boost::intrusive::header_holder_plus_last" }
%"struct.boost::intrusive::header_holder_plus_last" = type { %"struct.boost::intrusive::detail::default_header_holder", ptr }
%"struct.boost::intrusive::detail::default_header_holder" = type { %"struct.boost::intrusive::slist_node" }
%"struct.std::atomic" = type { %"struct.std::__atomic_base" }
%"struct.std::__atomic_base" = type { i64 }
%"class.std::map" = type { %"class.std::_Rb_tree" }
%"class.std::_Rb_tree" = type { %"struct.std::_Rb_tree<unsigned long, std::pair<const unsigned long, boost::fibers::context::fss_data>, std::_Select1st<std::pair<const unsigned long, boost::fibers::context::fss_data>>, std::less<unsigned long>>::_Rb_tree_impl" }
%"struct.std::_Rb_tree<unsigned long, std::pair<const unsigned long, boost::fibers::context::fss_data>, std::_Select1st<std::pair<const unsigned long, boost::fibers::context::fss_data>>, std::less<unsigned long>>::_Rb_tree_impl" = type { [8 x i8], %"struct.std::_Rb_tree_header" }
%"struct.std::_Rb_tree_header" = type { %"struct.std::_Rb_tree_node_base", i64 }
%"struct.std::_Rb_tree_node_base" = type { i32, ptr, ptr, ptr }
%"class.boost::intrusive::set_member_hook" = type { %"class.boost::intrusive::generic_hook.3" }
%"class.boost::intrusive::generic_hook.3" = type { %"struct.boost::intrusive::rbtree_node" }
%"struct.boost::intrusive::rbtree_node" = type { ptr, ptr, ptr, i32 }
%"class.boost::fibers::waker" = type { ptr, i64 }
%"class.boost::intrusive::list_member_hook" = type { %"class.boost::intrusive::generic_hook.5" }
%"class.boost::intrusive::generic_hook.5" = type { %"struct.boost::intrusive::list_node" }
%"struct.boost::intrusive::list_node" = type { ptr, ptr }
%"class.boost::intrusive::slist_member_hook.7" = type { %"class.boost::intrusive::generic_hook" }
%"class.boost::intrusive::list_member_hook.8" = type { %"class.boost::intrusive::generic_hook.5" }
%"class.boost::context::fiber" = type { ptr }
%"class.std::chrono::time_point" = type { %"class.std::chrono::duration" }
%"class.std::chrono::duration" = type { i64 }

@__dso_handle = external hidden global i8
@_ZN5boost6fibers19context_initializer7active_E = hidden thread_local global ptr null, align 8
@_ZN5boost6fibers19context_initializer8counter_E = hidden thread_local global i64 0, align 8
@_ZZN5boost6fibers7context6activeEvE15ctx_initializer = internal thread_local global %"struct.boost::fibers::context_initializer" zeroinitializer, align 1
@_ZGVZN5boost6fibers7context6activeEvE15ctx_initializer = internal thread_local global i8 0, align 1

; Function Attrs: mustprogress uwtable
define linkonce_odr hidden void @_ZN5boost6fibers19context_initializerC2IJEEEDpOT_(ptr noundef nonnull align 1 dereferenceable(1) %0) unnamed_addr #7 comdat align 2 {
  %2 = alloca ptr, align 8
  store ptr %0, ptr %2, align 8, !tbaa !3
  %3 = load ptr, ptr %2, align 8
  %4 = call align 8 ptr @llvm.threadlocal.address.p0(ptr align 8 @_ZN5boost6fibers19context_initializer8counter_E)
  %5 = load i64, ptr %4, align 8, !tbaa !7
  %6 = add i64 %5, 1
  store i64 %6, ptr %4, align 8, !tbaa !7
  %7 = icmp eq i64 0, %5
  br i1 %7, label %8, label %9

8:                                                ; preds = %1
  call void @_ZN5boost6fibers19context_initializer10initializeEv(ptr noundef nonnull align 1 dereferenceable(1) %3)
  br label %9

9:                                                ; preds = %8, %1
  ret void
}

; Function Attrs: mustprogress nounwind uwtable
define noundef ptr @_ZN5boost6fibers7context6activeEv() #4 align 2 personality ptr @__gxx_personality_v0 {
  %1 = load i8, ptr @_ZGVZN5boost6fibers7context6activeEvE15ctx_initializer, align 1
  %2 = icmp eq i8 %1, 0
  br i1 %2, label %3, label %6, !prof !9

3:                                                ; preds = %0
  invoke void @_ZN5boost6fibers19context_initializerC2IJEEEDpOT_(ptr noundef nonnull align 1 dereferenceable(1) @_ZZN5boost6fibers7context6activeEvE15ctx_initializer)
          to label %4 unwind label %9

4:                                                ; preds = %3
  %5 = call i32 @__cxa_thread_atexit(ptr @_ZN5boost6fibers19context_initializerD2Ev, ptr @_ZZN5boost6fibers7context6activeEvE15ctx_initializer, ptr @__dso_handle) #3
  store i8 1, ptr @_ZGVZN5boost6fibers7context6activeEvE15ctx_initializer, align 1
  br label %6

6:                                                ; preds = %4, %0
  %7 = call align 8 ptr @llvm.threadlocal.address.p0(ptr align 8 @_ZN5boost6fibers19context_initializer7active_E)
  %8 = load ptr, ptr %7, align 8, !tbaa !3
  ret ptr %8

9:                                                ; preds = %3
  %10 = landingpad { ptr, i32 }
          catch ptr null
  %11 = extractvalue { ptr, i32 } %10, 0
  call void @__clang_call_terminate(ptr %11) #24
  unreachable
}

; Function Attrs: mustprogress nounwind uwtable
define linkonce_odr hidden noundef ptr @_ZNK5boost6fibers7context13get_schedulerEv(ptr noundef nonnull align 8 dereferenceable(232) %0) #4 comdat align 2 {
  %2 = alloca ptr, align 8
  store ptr %0, ptr %2, align 8, !tbaa !3
  %3 = load ptr, ptr %2, align 8
  %4 = getelementptr inbounds nuw %"class.boost::fibers::context", ptr %3, i32 0, i32 7
  %5 = load ptr, ptr %4, align 8, !tbaa !10
  ret ptr %5
}

; Function Attrs: mustprogress nounwind uwtable
define void @_ZN5boost6fibers7context5yieldEv(ptr noundef nonnull align 8 dereferenceable(232) %0) #4 align 2 {
  %2 = alloca ptr, align 8
  store ptr %0, ptr %2, align 8, !tbaa !3
  %3 = load ptr, ptr %2, align 8
  %4 = call noundef ptr @_ZNK5boost6fibers7context13get_schedulerEv(ptr noundef nonnull align 8 dereferenceable(232) %3) #3
  %5 = call noundef ptr @_ZN5boost6fibers7context6activeEv() #3
  call void @_ZN5boost6fibers9scheduler5yieldEPNS0_7contextE(ptr noundef nonnull align 8 dereferenceable(137) %4, ptr noundef %5) #3
  ret void
}