; Function Attrs: mustprogress nounwind uwtable
define void @_ZN5boost6fibers7context5yieldEv(ptr nocapture noundef nonnull readonly align 8 dereferenceable(232) %0) local_unnamed_addr #3 align 2 personality ptr @__gxx_personality_v0 {
  %2 = getelementptr inbounds nuw i8, ptr %0, i64 56
  %3 = load ptr, ptr %2, align 8, !tbaa !14
  %.b.i = load i1, ptr @_ZGVZN5boost6fibers7context6activeEvE15ctx_initializer, align 1
  br i1 %.b.i, label %_ZN5boost6fibers7context6activeEv.exit, label %4, !prof !12

4:                                                ; preds = %1
  %5 = tail call align 8 ptr @llvm.threadlocal.address.p0(ptr align 8 @_ZN5boost6fibers19context_initializer8counter_E)
  %6 = load i64, ptr %5, align 8, !tbaa !3
  %7 = add i64 %6, 1
  store i64 %7, ptr %5, align 8, !tbaa !3
  %8 = icmp eq i64 %6, 0
  br i1 %8, label %9, label %_ZN5boost6fibers19context_initializerC2IJEEEDpOT_.exit.i

9:                                                ; preds = %4
  invoke void @_ZN5boost6fibers19context_initializer10initializeEv(ptr noundef nonnull align 1 dereferenceable(1) @_ZZN5boost6fibers7context6activeEvE15ctx_initializer)
          to label %_ZN5boost6fibers19context_initializerC2IJEEEDpOT_.exit.i unwind label %11

_ZN5boost6fibers19context_initializerC2IJEEEDpOT_.exit.i: ; preds = %9, %4
  %10 = tail call i32 @__cxa_thread_atexit(ptr nonnull @_ZN5boost6fibers19context_initializerD2Ev, ptr nonnull @_ZZN5boost6fibers7context6activeEvE15ctx_initializer, ptr nonnull @__dso_handle) #8
  store i1 true, ptr @_ZGVZN5boost6fibers7context6activeEvE15ctx_initializer, align 1
  br label %_ZN5boost6fibers7context6activeEv.exit

11:                                               ; preds = %9
  %12 = landingpad { ptr, i32 }
          catch ptr null
  %13 = extractvalue { ptr, i32 } %12, 0
  tail call void @__clang_call_terminate(ptr %13) #32
  unreachable

_ZN5boost6fibers7context6activeEv.exit:           ; preds = %1, %_ZN5boost6fibers19context_initializerC2IJEEEDpOT_.exit.i
  %14 = tail call align 8 ptr @llvm.threadlocal.address.p0(ptr align 8 @_ZN5boost6fibers19context_initializer7active_E)
  %15 = load ptr, ptr %14, align 8, !tbaa !13
  tail call void @_ZN5boost6fibers9scheduler5yieldEPNS0_7contextE(ptr noundef nonnull align 8 dereferenceable(137) %3, ptr noundef %15) #8
  ret void
}